target datalayout = "e-m:e-p270:32:32-p271:32:32-p272:64:64-i64:64-i128:128-f80:128-n8:16:32:64-S128"
target triple = "x86_64-pc-linux-gnu"

%struct.BrotliHasherParams = type { i32, i32, i32, i32 }
%struct.HasherCommon = type { [4 x ptr], i32, i64, i64, %struct.BrotliHasherParams, i32 }
%struct.H5 = type { i64, i64, i32, i32, i32, i32, ptr, ptr, ptr }

; Function Attrs: nounwind uwtable
define internal void @InitializeH5(ptr noundef %0, ptr noalias noundef %1, ptr noundef %2) #0 {
  %4 = alloca ptr, align 8
  %5 = alloca ptr, align 8
  %6 = alloca ptr, align 8
  store ptr %0, ptr %4, align 8, !tbaa !48
  store ptr %1, ptr %5, align 8, !tbaa !202
  store ptr %2, ptr %6, align 8, !tbaa !129
  %7 = load ptr, ptr %4, align 8, !tbaa !48
  %8 = load ptr, ptr %5, align 8, !tbaa !202
  %9 = getelementptr inbounds nuw %struct.H5, ptr %8, i32 0, i32 6
  store ptr %7, ptr %9, align 8, !tbaa !238
  %10 = load ptr, ptr %4, align 8, !tbaa !48
  %11 = getelementptr inbounds nuw %struct.HasherCommon, ptr %10, i32 0, i32 4
  %12 = getelementptr inbounds nuw %struct.BrotliHasherParams, ptr %11, i32 0, i32 1
  %13 = load i32, ptr %12, align 4, !tbaa !240
  %14 = sub nsw i32 32, %13
  %15 = load ptr, ptr %5, align 8, !tbaa !202
  %16 = getelementptr inbounds nuw %struct.H5, ptr %15, i32 0, i32 2
  store i32 %14, ptr %16, align 8, !tbaa !241
  %17 = load ptr, ptr %4, align 8, !tbaa !48
  %18 = getelementptr inbounds nuw %struct.HasherCommon, ptr %17, i32 0, i32 4
  %19 = getelementptr inbounds nuw %struct.BrotliHasherParams, ptr %18, i32 0, i32 1
  %20 = load i32, ptr %19, align 4, !tbaa !240
  %21 = zext i32 %20 to i64
  %22 = shl i64 1, %21
  %23 = load ptr, ptr %5, align 8, !tbaa !202
  %24 = getelementptr inbounds nuw %struct.H5, ptr %23, i32 0, i32 0
  store i64 %22, ptr %24, align 8, !tbaa !242
  %25 = load ptr, ptr %4, align 8, !tbaa !48
  %26 = getelementptr inbounds nuw %struct.HasherCommon, ptr %25, i32 0, i32 4
  %27 = getelementptr inbounds nuw %struct.BrotliHasherParams, ptr %26, i32 0, i32 2
  %28 = load i32, ptr %27, align 8, !tbaa !243
  %29 = zext i32 %28 to i64
  %30 = shl i64 1, %29
  %31 = load ptr, ptr %5, align 8, !tbaa !202
  %32 = getelementptr inbounds nuw %struct.H5, ptr %31, i32 0, i32 1
  store i64 %30, ptr %32, align 8, !tbaa !244
  %33 = load ptr, ptr %5, align 8, !tbaa !202
  %34 = getelementptr inbounds nuw %struct.H5, ptr %33, i32 0, i32 1
  %35 = load i64, ptr %34, align 8, !tbaa !244
  %36 = sub i64 %35, 1
  %37 = trunc i64 %36 to i32
  %38 = load ptr, ptr %5, align 8, !tbaa !202
  %39 = getelementptr inbounds nuw %struct.H5, ptr %38, i32 0, i32 3
  store i32 %37, ptr %39, align 4, !tbaa !245
  %40 = load ptr, ptr %4, align 8, !tbaa !48
  %41 = getelementptr inbounds nuw %struct.HasherCommon, ptr %40, i32 0, i32 0
  %42 = getelementptr inbounds [4 x ptr], ptr %41, i64 0, i64 0
  %43 = load ptr, ptr %42, align 8, !tbaa !48
  %44 = load ptr, ptr %5, align 8, !tbaa !202
  %45 = getelementptr inbounds nuw %struct.H5, ptr %44, i32 0, i32 7
  store ptr %43, ptr %45, align 8, !tbaa !246
  %46 = load ptr, ptr %4, align 8, !tbaa !48
  %47 = getelementptr inbounds nuw %struct.HasherCommon, ptr %46, i32 0, i32 0
  %48 = getelementptr inbounds [4 x ptr], ptr %47, i64 0, i64 1
  %49 = load ptr, ptr %48, align 8, !tbaa !48
  %50 = load ptr, ptr %5, align 8, !tbaa !202
  %51 = getelementptr inbounds nuw %struct.H5, ptr %50, i32 0, i32 8
  store ptr %49, ptr %51, align 8, !tbaa !247
  %52 = load ptr, ptr %4, align 8, !tbaa !48
  %53 = getelementptr inbounds nuw %struct.HasherCommon, ptr %52, i32 0, i32 4
  %54 = getelementptr inbounds nuw %struct.BrotliHasherParams, ptr %53, i32 0, i32 2
  %55 = load i32, ptr %54, align 8, !tbaa !243
  %56 = load ptr, ptr %5, align 8, !tbaa !202
  %57 = getelementptr inbounds nuw %struct.H5, ptr %56, i32 0, i32 4
  store i32 %55, ptr %57, align 8, !tbaa !248
  %58 = load ptr, ptr %4, align 8, !tbaa !48
  %59 = getelementptr inbounds nuw %struct.HasherCommon, ptr %58, i32 0, i32 4
  %60 = getelementptr inbounds nuw %struct.BrotliHasherParams, ptr %59, i32 0, i32 3
  %61 = load i32, ptr %60, align 4, !tbaa !249
  %62 = load ptr, ptr %5, align 8, !tbaa !202
  %63 = getelementptr inbounds nuw %struct.H5, ptr %62, i32 0, i32 5
  store i32 %61, ptr %63, align 4, !tbaa !250
  ret void
}