; Function Attrs: mustprogress nofree norecurse nosync nounwind willreturn memory(argmem: readwrite) uwtable
define internal fastcc void @InitializeH5(ptr noundef %0, ptr noalias noundef writeonly captures(none) initializes((0, 56)) %1) unnamed_addr #0 {
  %3 = getelementptr inbounds nuw i8, ptr %1, i64 32
  store ptr %0, ptr %3, align 8, !tbaa !642
  %4 = getelementptr inbounds nuw i8, ptr %0, i64 60
  %5 = load i32, ptr %4, align 4, !tbaa !643
  %6 = sub nsw i32 32, %5
  %7 = getelementptr inbounds nuw i8, ptr %1, i64 16
  store i32 %6, ptr %7, align 8, !tbaa !273
  %8 = zext nneg i32 %5 to i64
  %9 = shl nuw i64 1, %8
  store i64 %9, ptr %1, align 8, !tbaa !644
  %10 = getelementptr inbounds nuw i8, ptr %0, i64 64
  %11 = load i32, ptr %10, align 8, !tbaa !645
  %12 = zext nneg i32 %11 to i64
  %13 = shl nuw i64 1, %12
  %14 = getelementptr inbounds nuw i8, ptr %1, i64 8
  store i64 %13, ptr %14, align 8, !tbaa !646
  %15 = trunc i64 %13 to i32
  %16 = add i32 %15, -1
  %17 = getelementptr inbounds nuw i8, ptr %1, i64 20
  store i32 %16, ptr %17, align 4, !tbaa !274
  %18 = load ptr, ptr %0, align 8, !tbaa !63
  %19 = getelementptr inbounds nuw i8, ptr %1, i64 40
  store ptr %18, ptr %19, align 8, !tbaa !268
  %20 = getelementptr inbounds nuw i8, ptr %0, i64 8
  %21 = load ptr, ptr %20, align 8, !tbaa !63
  %22 = getelementptr inbounds nuw i8, ptr %1, i64 48
  store ptr %21, ptr %22, align 8, !tbaa !272
  %23 = getelementptr inbounds nuw i8, ptr %1, i64 24
  store i32 %11, ptr %23, align 8, !tbaa !275
  %24 = getelementptr inbounds nuw i8, ptr %0, i64 68
  %25 = load i32, ptr %24, align 4, !tbaa !647
  %26 = getelementptr inbounds nuw i8, ptr %1, i64 28
  store i32 %25, ptr %26, align 4, !tbaa !648
  ret void
}